target datalayout = "e-m:e-p270:32:32-p271:32:32-p272:64:64-i64:64-f80:128-n8:16:32:64-S128"
target triple = "x86_64-pc-linux-gnu"

@.str = private unnamed_addr constant [3 x i8] c"%c\00", align 1
@.str.1 = private unnamed_addr constant [2 x i8] c"\0A\00", align 1

; Function Attrs: noinline nounwind uwtable
define dso_local i32 @main() #0 {
  %1 = alloca i32, align 4
  %2 = alloca i32, align 4
  %3 = alloca i32, align 4
  %4 = alloca i32, align 4
  %5 = alloca [100 x i8], align 16
  %6 = alloca [100 x i8], align 16
  store i32 0, i32* %1, align 4
  br label %7

7:                                                ; preds = %174, %0
  %8 = getelementptr inbounds [100 x i8], [100 x i8]* %5, i64 0, i64 0
  %9 = call i32 (i8*, ...) bitcast (i32 (...)* @gets to i32 (i8*, ...)*)(i8* %8)
  %10 = sext i32 %9 to i64
  %11 = inttoptr i64 %10 to i8*
  %12 = icmp ne i8* %11, null
  br i1 %12, label %13, label %176

13:                                               ; preds = %7
  %14 = getelementptr inbounds [100 x i8], [100 x i8]* %5, i64 0, i64 0
  %15 = call i64 @strlen(i8* %14) #3
  %16 = trunc i64 %15 to i32
  store i32 %16, i32* %4, align 4
  store i32 0, i32* %2, align 4
  br label %17

17:                                               ; preds = %25, %13
  %18 = load i32, i32* %2, align 4
  %19 = load i32, i32* %4, align 4
  %20 = icmp slt i32 %18, %19
  br i1 %20, label %21, label %28

21:                                               ; preds = %17
  %22 = load i32, i32* %2, align 4
  %23 = sext i32 %22 to i64
  %24 = getelementptr inbounds [100 x i8], [100 x i8]* %6, i64 0, i64 %23
  store i8 32, i8* %24, align 1
  br label %25

25:                                               ; preds = %21
  %26 = load i32, i32* %2, align 4
  %27 = add nsw i32 %26, 1
  store i32 %27, i32* %2, align 4
  br label %17

28:                                               ; preds = %17
  store i32 0, i32* %2, align 4
  br label %29

29:                                               ; preds = %56, %28
  %30 = load i32, i32* %2, align 4
  %31 = load i32, i32* %4, align 4
  %32 = icmp slt i32 %30, %31
  br i1 %32, label %33, label %59

33:                                               ; preds = %29
  %34 = load i32, i32* %2, align 4
  %35 = sext i32 %34 to i64
  %36 = getelementptr inbounds [100 x i8], [100 x i8]* %5, i64 0, i64 %35
  %37 = load i8, i8* %36, align 1
  %38 = sext i8 %37 to i32
  %39 = icmp eq i32 %38, 40
  br i1 %39, label %47, label %40

40:                                               ; preds = %33
  %41 = load i32, i32* %2, align 4
  %42 = sext i32 %41 to i64
  %43 = getelementptr inbounds [100 x i8], [100 x i8]* %5, i64 0, i64 %42
  %44 = load i8, i8* %43, align 1
  %45 = sext i8 %44 to i32
  %46 = icmp eq i32 %45, 41
  br i1 %46, label %47, label %55

47:                                               ; preds = %40, %33
  %48 = load i32, i32* %2, align 4
  %49 = sext i32 %48 to i64
  %50 = getelementptr inbounds [100 x i8], [100 x i8]* %5, i64 0, i64 %49
  %51 = load i8, i8* %50, align 1
  %52 = load i32, i32* %2, align 4
  %53 = sext i32 %52 to i64
  %54 = getelementptr inbounds [100 x i8], [100 x i8]* %6, i64 0, i64 %53
  store i8 %51, i8* %54, align 1
  br label %55

55:                                               ; preds = %47, %40
  br label %56

56:                                               ; preds = %55
  %57 = load i32, i32* %2, align 4
  %58 = add nsw i32 %57, 1
  store i32 %58, i32* %2, align 4
  br label %29

59:                                               ; preds = %29
  store i32 0, i32* %2, align 4
  br label %60

60:                                               ; preds = %71, %59
  %61 = load i32, i32* %2, align 4
  %62 = load i32, i32* %4, align 4
  %63 = icmp slt i32 %61, %62
  br i1 %63, label %64, label %74

64:                                               ; preds = %60
  %65 = load i32, i32* %2, align 4
  %66 = sext i32 %65 to i64
  %67 = getelementptr inbounds [100 x i8], [100 x i8]* %5, i64 0, i64 %66
  %68 = load i8, i8* %67, align 1
  %69 = sext i8 %68 to i32
  %70 = call i32 (i8*, ...) @printf(i8* getelementptr inbounds ([3 x i8], [3 x i8]* @.str, i64 0, i64 0), i32 %69)
  br label %71

71:                                               ; preds = %64
  %72 = load i32, i32* %2, align 4
  %73 = add nsw i32 %72, 1
  store i32 %73, i32* %2, align 4
  br label %60

74:                                               ; preds = %60
  %75 = call i32 (i8*, ...) @printf(i8* getelementptr inbounds ([2 x i8], [2 x i8]* @.str.1, i64 0, i64 0))
  %76 = load i32, i32* %4, align 4
  %77 = sub nsw i32 %76, 1
  store i32 %77, i32* %2, align 4
  br label %78

78:                                               ; preds = %120, %74
  %79 = load i32, i32* %2, align 4
  %80 = icmp sge i32 %79, 0
  br i1 %80, label %81, label %123

81:                                               ; preds = %78
  %82 = load i32, i32* %2, align 4
  %83 = sext i32 %82 to i64
  %84 = getelementptr inbounds [100 x i8], [100 x i8]* %6, i64 0, i64 %83
  %85 = load i8, i8* %84, align 1
  %86 = sext i8 %85 to i32
  %87 = icmp eq i32 %86, 40
  br i1 %87, label %88, label %119

88:                                               ; preds = %81
  %89 = load i32, i32* %2, align 4
  store i32 %89, i32* %3, align 4
  br label %90

90:                                               ; preds = %115, %88
  %91 = load i32, i32* %3, align 4
  %92 = load i32, i32* %4, align 4
  %93 = icmp slt i32 %91, %92
  br i1 %93, label %94, label %118

94:                                               ; preds = %90
  %95 = load i32, i32* %3, align 4
  %96 = sext i32 %95 to i64
  %97 = getelementptr inbounds [100 x i8], [100 x i8]* %6, i64 0, i64 %96
  %98 = load i8, i8* %97, align 1
  %99 = sext i8 %98 to i32
  %100 = icmp eq i32 %99, 41
  br i1 %100, label %101, label %114

101:                                              ; preds = %94
  %102 = load i32, i32* %2, align 4
  %103 = sext i32 %102 to i64
  %104 = getelementptr inbounds [100 x i8], [100 x i8]* %6, i64 0, i64 %103
  store i8 32, i8* %104, align 1
  %105 = load i32, i32* %3, align 4
  %106 = sext i32 %105 to i64
  %107 = getelementptr inbounds [100 x i8], [100 x i8]* %6, i64 0, i64 %106
  store i8 32, i8* %107, align 1
  %108 = load i32, i32* %2, align 4
  %109 = sext i32 %108 to i64
  %110 = getelementptr inbounds [100 x i8], [100 x i8]* %5, i64 0, i64 %109
  store i8 32, i8* %110, align 1
  %111 = load i32, i32* %3, align 4
  %112 = sext i32 %111 to i64
  %113 = getelementptr inbounds [100 x i8], [100 x i8]* %5, i64 0, i64 %112
  store i8 32, i8* %113, align 1
  br label %118

114:                                              ; preds = %94
  br label %115

115:                                              ; preds = %114
  %116 = load i32, i32* %3, align 4
  %117 = add nsw i32 %116, 1
  store i32 %117, i32* %3, align 4
  br label %90

118:                                              ; preds = %101, %90
  br label %119

119:                                              ; preds = %118, %81
  br label %120

120:                                              ; preds = %119
  %121 = load i32, i32* %2, align 4
  %122 = add nsw i32 %121, -1
  store i32 %122, i32* %2, align 4
  br label %78

123:                                              ; preds = %78
  store i32 0, i32* %2, align 4
  br label %124

124:                                              ; preds = %156, %123
  %125 = load i32, i32* %2, align 4
  %126 = load i32, i32* %4, align 4
  %127 = icmp slt i32 %125, %126
  br i1 %127, label %128, label %159

128:                                              ; preds = %124
  %129 = load i32, i32* %2, align 4
  %130 = sext i32 %129 to i64
  %131 = getelementptr inbounds [100 x i8], [100 x i8]* %5, i64 0, i64 %130
  %132 = load i8, i8* %131, align 1
  %133 = sext i8 %132 to i32
  %134 = icmp eq i32 %133, 40
  br i1 %134, label %135, label %139

135:                                              ; preds = %128
  %136 = load i32, i32* %2, align 4
  %137 = sext i32 %136 to i64
  %138 = getelementptr inbounds [100 x i8], [100 x i8]* %5, i64 0, i64 %137
  store i8 36, i8* %138, align 1
  br label %155

139:                                              ; preds = %128
  %140 = load i32, i32* %2, align 4
  %141 = sext i32 %140 to i64
  %142 = getelementptr inbounds [100 x i8], [100 x i8]* %5, i64 0, i64 %141
  %143 = load i8, i8* %142, align 1
  %144 = sext i8 %143 to i32
  %145 = icmp eq i32 %144, 41
  br i1 %145, label %146, label %150

146:                                              ; preds = %139
  %147 = load i32, i32* %2, align 4
  %148 = sext i32 %147 to i64
  %149 = getelementptr inbounds [100 x i8], [100 x i8]* %5, i64 0, i64 %148
  store i8 63, i8* %149, align 1
  br label %154

150:                                              ; preds = %139
  %151 = load i32, i32* %2, align 4
  %152 = sext i32 %151 to i64
  %153 = getelementptr inbounds [100 x i8], [100 x i8]* %5, i64 0, i64 %152
  store i8 32, i8* %153, align 1
  br label %154

154:                                              ; preds = %150, %146
  br label %155

155:                                              ; preds = %154, %135
  br label %156

156:                                              ; preds = %155
  %157 = load i32, i32* %2, align 4
  %158 = add nsw i32 %157, 1
  store i32 %158, i32* %2, align 4
  br label %124

159:                                              ; preds = %124
  store i32 0, i32* %2, align 4
  br label %160

160:                                              ; preds = %171, %159
  %161 = load i32, i32* %2, align 4
  %162 = load i32, i32* %4, align 4
  %163 = icmp slt i32 %161, %162
  br i1 %163, label %164, label %174

164:                                              ; preds = %160
  %165 = load i32, i32* %2, align 4
  %166 = sext i32 %165 to i64
  %167 = getelementptr inbounds [100 x i8], [100 x i8]* %5, i64 0, i64 %166
  %168 = load i8, i8* %167, align 1
  %169 = sext i8 %168 to i32
  %170 = call i32 (i8*, ...) @printf(i8* getelementptr inbounds ([3 x i8], [3 x i8]* @.str, i64 0, i64 0), i32 %169)
  br label %171

171:                                              ; preds = %164
  %172 = load i32, i32* %2, align 4
  %173 = add nsw i32 %172, 1
  store i32 %173, i32* %2, align 4
  br label %160

174:                                              ; preds = %160
  %175 = call i32 (i8*, ...) @printf(i8* getelementptr inbounds ([2 x i8], [2 x i8]* @.str.1, i64 0, i64 0))
  br label %7

176:                                              ; preds = %7
  %177 = load i32, i32* %1, align 4
  ret i32 %177
}